; Function Attrs: nounwind uwtable
define ptr @l_Lean_Compiler_LCNF_Code_containsConst_goExpr(ptr noundef %0, ptr noundef %1) local_unnamed_addr #0 {
  br label %.backedge

.backedge:                                        ; preds = %.backedge.backedge, %2
  %.025 = phi ptr [ %1, %2 ], [ %.025.be, %.backedge.backedge ]
  %3 = ptrtoint ptr %.025 to i64
  %4 = and i64 %3, 1
  %.not.i28 = icmp eq i64 %4, 0
  br i1 %.not.i28, label %8, label %5

5:                                                ; preds = %.backedge
  %6 = lshr i64 %3, 1
  %7 = trunc i64 %6 to i32
  br label %lean_obj_tag.exit

8:                                                ; preds = %.backedge
  %9 = getelementptr i8, ptr %.025, i64 4
  %.val.i = load i32, ptr %9, align 4
  %10 = lshr i32 %.val.i, 24
  br label %lean_obj_tag.exit

lean_obj_tag.exit:                                ; preds = %5, %8
  %.0.i = phi i32 [ %7, %5 ], [ %10, %8 ]
  switch i32 %.0.i, label %.thread [
    i32 4, label %11
    i32 5, label %19
    i32 6, label %.backedge.sink.split
    i32 8, label %38
    i32 11, label %.backedge.sink.split
  ]

11:                                               ; preds = %lean_obj_tag.exit
  %12 = getelementptr inbounds nuw i8, ptr %.025, i64 8
  %13 = load ptr, ptr %12, align 8, !tbaa !7
  %14 = tail call zeroext i8 @lean_name_eq(ptr noundef %13, ptr noundef %0) #5
  %15 = zext i8 %14 to i64
  %16 = shl nuw nsw i64 %15, 1
  %17 = or disjoint i64 %16, 1
  %18 = inttoptr i64 %17 to ptr
  br label %.thread

19:                                               ; preds = %lean_obj_tag.exit
  %20 = getelementptr inbounds nuw i8, ptr %.025, i64 8
  %21 = load ptr, ptr %20, align 8, !tbaa !7
  %22 = getelementptr inbounds nuw i8, ptr %.025, i64 16
  %23 = load ptr, ptr %22, align 8, !tbaa !7
  %24 = tail call ptr @l_Lean_Compiler_LCNF_Code_containsConst_goExpr(ptr noundef %0, ptr noundef %21)
  %25 = ptrtoint ptr %24 to i64
  %26 = and i64 %25, 1
  %.not = icmp eq i64 %26, 0
  br i1 %.not, label %27, label %lean_dec.exit

27:                                               ; preds = %19
  %28 = load i32, ptr %24, align 4, !tbaa !9
  %29 = icmp sgt i32 %28, 1
  br i1 %29, label %30, label %32, !prof !12

30:                                               ; preds = %27
  %31 = add nsw i32 %28, -1
  store i32 %31, ptr %24, align 4, !tbaa !9
  br label %lean_dec.exit

32:                                               ; preds = %27
  %.not.i = icmp eq i32 %28, 0
  br i1 %.not.i, label %lean_dec.exit, label %33

33:                                               ; preds = %32
  tail call void @lean_dec_ref_cold(ptr noundef nonnull %24) #5
  br label %lean_dec.exit

lean_dec.exit:                                    ; preds = %33, %32, %30, %19
  %34 = and i64 %25, 510
  %35 = icmp eq i64 %34, 0
  br i1 %35, label %.backedge.backedge, label %.thread

.backedge.sink.split:                             ; preds = %lean_obj_tag.exit, %lean_obj_tag.exit
  %36 = getelementptr inbounds nuw i8, ptr %.025, i64 24
  %37 = load ptr, ptr %36, align 8, !tbaa !7
  br label %.backedge.backedge

.backedge.backedge:                               ; preds = %.backedge.sink.split, %lean_dec.exit
  %.025.be = phi ptr [ %23, %lean_dec.exit ], [ %37, %.backedge.sink.split ]
  br label %.backedge

38:                                               ; preds = %lean_obj_tag.exit
  %39 = load ptr, ptr @l_Lean_Compiler_LCNF_Code_containsConst_goExpr___closed__4, align 8, !tbaa !7
  %40 = load i8, ptr @l_instInhabitedBool, align 1, !tbaa !4
  %41 = zext i8 %40 to i64
  %42 = shl nuw nsw i64 %41, 1
  %43 = or disjoint i64 %42, 1
  %44 = inttoptr i64 %43 to ptr
  %45 = tail call ptr @lean_panic_fn(ptr noundef nonnull %44, ptr noundef %39) #5
  br label %.thread

.thread:                                          ; preds = %lean_dec.exit, %lean_obj_tag.exit, %38, %11
  %.1 = phi ptr [ %45, %38 ], [ %18, %11 ], [ inttoptr (i64 3 to ptr), %lean_dec.exit ], [ inttoptr (i64 1 to ptr), %lean_obj_tag.exit ]
  ret ptr %.1
}